MPASM 03.50 Released                           DISPLAY_01.ASM   10-15-1982  12:19:12         PAGE  1


LOC  OBJECT CODE     LINE SOURCE TEXT
  VALUE

                      00001 ;************************************ Display_01.asm ************************************
                      00002 ;
                      00003 ;       ===================================================================
                      00004 ;         Del libro "MICROCONTROLADOR PIC16F84A. DESARROLLO DE PROYECTOS"
                      00005 ;         E. Palacios, F. Remiro y L. López.
                      00006 ;         Editorial Ra-Ma.  www.ra-ma.es
                      00007 ;       ===================================================================
                      00008 ;
                      00009 ; En un display de 7 segmentos conectado al Puerto B se visualiza la cantidad leída por
                      00010 ; el Puerto A. Así por ejemplo si por la entrada lee "---0101", en el display visualiza "5".
                      00011 ;
                      00012 ; ZONA DE DATOS **********************************************************************
                      00013 
2007   3FF1           00014         __CONFIG   _CP_OFF &  _WDT_OFF & _PWRTE_ON & _XT_OSC
                      00015         LIST       P=16F84A
                      00016         INCLUDE  <P16F84A.INC>
                      00001         LIST
                      00002 ; P16F84A.INC  Standard Header File, Version 2.00    Microchip Technology, Inc.
                      00134         LIST
                      00017 
                      00018 ; ZONA DE CÓDIGOS ********************************************************************
                      00019 
0000                  00020         ORG     0                       ; El programa comienza en la dirección 0.
0000                  00021 Inicio
0000   1683           00022         bsf     STATUS,RP0              ; Acceso al Banco 1.
0001   0186           00023         clrf    PORTB                   ; Las líneas del Puerto B se configuran como salida.
0002   301F           00024         movlw   b'00011111'             ; Las 5 líneas del Puerto A se configuran como entrada.
0003   0085           00025         movwf   PORTA
0004   1283           00026         bcf     STATUS,RP0              ; Acceso al Banco 0.
0005                  00027 Principal
0005   0805           00028         movf    PORTA,W         ; Lee la entrada
0006   390F           00029         andlw   b'00001111'             ; Máscara para quedarse con el valor de las
                      00030                                         ; entradas correspondientes al nibble bajo.
0007   200A           00031         call    Binario_a_7Segmentos    ; Convierte código binario a 7 segmentos del display.
0008   0086           00032         movwf   PORTB                   ; Resultado se visualiza por el puerto de salida.
0009   2805           00033         goto    Principal
                      00034 
                      00035 ; Subrutina "Binario_7Segmentos" --------------------------------------------------------
                      00036 ;
000A                  00037 Binario_a_7Segmentos                    ; Tabla para display de 7 segmentos.
000A   0782           00038         addwf   PCL,F   
000B   343F           00039 Tabla   retlw   3Fh                     ; El código 7 segmentos para el "0".
000C   3406           00040         retlw   06h                     ; El código 7 segmentos para el "1".
000D   345B           00041         retlw   5Bh                     ; El código 7 segmentos para el "2".
000E   344F           00042         retlw   4Fh                     ; El código 7 segmentos para el "3".
000F   3466           00043         retlw   66h                     ; El código 7 segmentos para el "4".
0010   346D           00044         retlw   6Dh                     ; El código 7 segmentos para el "5".
0011   347D           00045         retlw   7Dh                     ; El código 7 segmentos para el "6".
0012   3407           00046         retlw   07h                     ; El código 7 segmentos para el "7".
0013   347F           00047         retlw   7Fh                     ; El código 7 segmentos para el "8".
0014   3467           00048         retlw   67h                     ; El código 7 segmentos para el "9".
0015   3477           00049         retlw   77h                     ; El código 7 segmentos para el "A".
0016   347C           00050         retlw   7Ch                     ; El código 7 segmentos para el "B".
MPASM 03.50 Released                           DISPLAY_01.ASM   10-15-1982  12:19:12         PAGE  2


LOC  OBJECT CODE     LINE SOURCE TEXT
  VALUE

0017   3439           00051         retlw   39h                     ; El código 7 segmentos para el "C".
0018   345E           00052         retlw   5Eh                     ; El código 7 segmentos para el "D".
0019   3479           00053         retlw   79h                     ; El código 7 segmentos para el "E".
001A   3471           00054         retlw   71h                     ; El código 7 segmentos para el "F".
                      00055 
                      00056         END                             ; Fin del programa.
MPASM 03.50 Released                           DISPLAY_01.ASM   10-15-1982  12:19:12         PAGE  3


SYMBOL TABLE
  LABEL                             VALUE 

Binario_a_7Segmentos              0000000A
C                                 00000000
DC                                00000001
EEADR                             00000009
EECON1                            00000088
EECON2                            00000089
EEDATA                            00000008
EEIE                              00000006
EEIF                              00000004
F                                 00000001
FSR                               00000004
GIE                               00000007
INDF                              00000000
INTCON                            0000000B
INTE                              00000004
INTEDG                            00000006
INTF                              00000001
IRP                               00000007
Inicio                            00000000
NOT_PD                            00000003
NOT_RBPU                          00000007
NOT_TO                            00000004
OPTION_REG                        00000081
PCL                               00000002
PCLATH                            0000000A
PORTA                             00000005
PORTB                             00000006
PS0                               00000000
PS1                               00000001
PS2                               00000002
PSA                               00000003
Principal                         00000005
RBIE                              00000003
RBIF                              00000000
RD                                00000000
RP0                               00000005
RP1                               00000006
STATUS                            00000003
T0CS                              00000005
T0IE                              00000005
T0IF                              00000002
T0SE                              00000004
TMR0                              00000001
TRISA                             00000085
TRISB                             00000086
Tabla                             0000000B
W                                 00000000
WR                                00000001
WREN                              00000002
WRERR                             00000003
Z                                 00000002
_CP_OFF                           00003FFF
_CP_ON                            0000000F
MPASM 03.50 Released                           DISPLAY_01.ASM   10-15-1982  12:19:12         PAGE  4


SYMBOL TABLE
  LABEL                             VALUE 

_HS_OSC                           00003FFE
_LP_OSC                           00003FFC
_PWRTE_OFF                        00003FFF
_PWRTE_ON                         00003FF7
_RC_OSC                           00003FFF
_WDT_OFF                          00003FFB
_WDT_ON                           00003FFF
_XT_OSC                           00003FFD
__16F84A                          00000001


MEMORY USAGE MAP ('X' = Used,  '-' = Unused)

0000 : XXXXXXXXXXXXXXXX XXXXXXXXXXX----- ---------------- ----------------
2000 : -------X-------- ---------------- ---------------- ----------------

All other memory blocks unused.

Program Memory Words Used:    27
Program Memory Words Free:   997


Errors   :     0
Warnings :     0 reported,     0 suppressed
Messages :     0 reported,     0 suppressed

