MPASM 03.50 Released                             RS232_09.ASM   10-12-2000  20:06:18         PAGE  1


LOC  OBJECT CODE     LINE SOURCE TEXT
  VALUE

                      00001 ;************************************ RS232_09.asm **************************************
                      00002 ;
                      00003 ;       ===================================================================
                      00004 ;         Del libro "MICROCONTROLADOR PIC16F84A. DESARROLLO DE PROYECTOS"
                      00005 ;         E. Palacios, F. Remiro y L. López.
                      00006 ;         Editorial Ra-Ma.  www.ra-ma.es
                      00007 ;       ===================================================================
                      00008 ;
                      00009 ; SISTEMA DE MONITORIZACIÓN: Se trata de leer el estado de las entradas conectadas a las
                      00010 ; líneas <RB7:RB4> del Puerto B y se envía por el puerto RS232 a un terminal para monitorizar
                      00011 ; el estado de los mismos. El estado de las entradas se mostrará cada 5 segundos.
                      00012 ;
                      00013 ; ZONA DE DATOS **********************************************************************
                      00014 
2007   3FF1           00015         __CONFIG   _CP_OFF &  _WDT_OFF & _PWRTE_ON & _XT_OSC
                      00016         LIST       P=16F84A
                      00017         INCLUDE  <P16F84A.INC>
                      00001         LIST
                      00002 ; P16F84A.INC  Standard Header File, Version 2.00    Microchip Technology, Inc.
                      00134         LIST
                      00018 
                      00019         CBLOCK  0x0C
                      00020         ENDC
                      00021 
  0000000D            00022 RetornoCarro    EQU     .13             ; Código de tecla "Enter" o "Retorno de Carro".
  0000000A            00023 CambioLinea     EQU     .10             ; Código para el cambio de línea.
                      00024 
                      00025 #DEFINE  Entrada0       PORTB,4         ; Define donde se sitúan las entradas.
                      00026 #DEFINE  Entrada1       PORTB,5
                      00027 #DEFINE  Entrada2       PORTB,6
                      00028 #DEFINE  Entrada3       PORTB,7
                      00029 
                      00030 ; ZONA DE CODIGOS ********************************************************************
                      00031 
0000                  00032         ORG     0
0000   2885           00033         goto    Inicio
                      00034 
0001                  00035 Mensajes                                ; Los mensajes no deben sobrepasar las 256 
0001   0782           00036         addwf   PCL,F                   ; primeras posiciones de memoria de programa.
0002                  00037 MensajeEntradas
0002   340D 340A      00038         DT RetornoCarro, CambioLinea
0004   3445 346E 3474 00039         DT "Entrada 3    Entrada 2    Entrada 1    Entrada 0"
       3472 3461 3464 
       3461 3420 3433 
       3420 3420 3420 
       3420 3445 346E 
       3474 3472 3461 
       3464 3461 3420 
       3432 3420 3420 
       3420 3420 3445 
       346E 3474 3472 
       3461 3464 3461 
       3420 3431 3420 
MPASM 03.50 Released                             RS232_09.ASM   10-12-2000  20:06:18         PAGE  2


LOC  OBJECT CODE     LINE SOURCE TEXT
  VALUE

       3420 3420 3420 
       3445 346E 3474 
       3472 3461 3464 
       3461 3420 3430 
0034   340D 340A      00040         DT RetornoCarro, CambioLinea
0036   342D 342D 342D 00041         DT "---------    ---------    ---------    ---------"
       342D 342D 342D 
       342D 342D 342D 
       3420 3420 3420 
       3420 342D 342D 
       342D 342D 342D 
       342D 342D 342D 
       342D 3420 3420 
       3420 3420 342D 
       342D 342D 342D 
       342D 342D 342D 
       342D 342D 3420 
       3420 3420 3420 
       342D 342D 342D 
       342D 342D 342D 
       342D 342D 342D 
0066   340D 340A 3400 00042         DT RetornoCarro, CambioLinea, 0x00
0069                  00043 MensajeAbierto
0069   3420 3441 3462 00044         DT " Abierto     ", 0x00
       3469 3465 3472 
       3474 346F 3420 
       3420 3420 3420 
       3420 3400 
0077                  00045 MensajeCerrado
0077   3420 3443 3465 00046         DT " Cerrado     ", 0x00
       3472 3472 3461 
       3464 346F 3420 
       3420 3420 3420 
       3420 3400 
                      00047 
0085                  00048 Inicio
0085   20B1           00049         call    RS232_Inicializa
0086   1683           00050         bsf     STATUS,RP0              ; Configura como entrada las 4 líneas correspondientes
0087   1606           00051         bsf     Entrada0                ; del Puerto B respetando la configuración del
0088   1686           00052         bsf     Entrada1                ; resto de las líneas.
0089   1706           00053         bsf     Entrada2
008A   1786           00054         bsf     Entrada3
Message[302]: Register in operand not in bank 0.  Ensure that bank bits are correct.
008B   1381           00055         bcf     OPTION_REG,NOT_RBPU     ; Activa las resistencias de Pull_Up del Puerto B.      
008C   1283           00056         bcf     STATUS,RP0
008D   20E6           00057         call    RS232_LineasBlanco      ; Visualiza unas cuantas líneas en blanco.
008E                  00058 Principal
008E   20E6           00059         call    RS232_LineasBlanco      ; Para limpiar la pantalla.
008F   2092           00060         call    LeeEntradasVisualiza    ; Lee las entradas y las visualiza.
0090   2122           00061         call    Retardo_5s              ; Cada cierto tiempo.
0091   288E           00062         goto    Principal
                      00063 
                      00064 ; Subrutina "LeeEntradasVisualiza" ------------------------------------------------------
MPASM 03.50 Released                             RS232_09.ASM   10-12-2000  20:06:18         PAGE  3


LOC  OBJECT CODE     LINE SOURCE TEXT
  VALUE

                      00065 ;
                      00066 ; Lee el estado de las entradas y las monitoriza en la pantalla del HyperTerminal.
                      00067 
0092                  00068 LeeEntradasVisualiza
0092   20E6           00069         call    RS232_LineasBlanco      ; Visualiza unas cuantas líneas en blanco.
0093   3002           00070         movlw   MensajeEntradas         ; Nombre de las entradas.
0094   20D8           00071         call    RS232_Mensaje           ; Lo visualiza en el HyperTerminal.
0095                  00072 LeeEntrada3
0095   1F86           00073         btfss   Entrada3                ; ¿Entrada = 1?, ¿Entrada = Abierta?
0096   2899           00074         goto    Entrada3Cerrado         ; No, está cerrada.
0097   20AB           00075         call    VisualizaAbierto
0098   289A           00076         goto    LeeEntrada2
0099                  00077 Entrada3Cerrado
0099   20AE           00078         call    VisualizaCerrado
009A                  00079 LeeEntrada2
009A   1F06           00080         btfss   Entrada2                ; Se repite el procedimiento para las
009B   289E           00081         goto    Entrada2Cerrado         ; demás entradas.
009C   20AB           00082         call    VisualizaAbierto
009D   289F           00083         goto    LeeEntrada1
009E                  00084 Entrada2Cerrado
009E   20AE           00085         call    VisualizaCerrado
009F                  00086 LeeEntrada1
009F   1E86           00087         btfss   Entrada1
00A0   28A3           00088         goto    Entrada1Cerrado
00A1   20AB           00089         call    VisualizaAbierto
00A2   28A4           00090         goto    LeeEntrada0
00A3                  00091 Entrada1Cerrado
00A3   20AE           00092         call    VisualizaCerrado
00A4                  00093 LeeEntrada0
00A4   1E06           00094         btfss   Entrada0
00A5   28A8           00095         goto    Entrada0Cerrado
00A6   20AB           00096         call    VisualizaAbierto
00A7   28A9           00097         goto    FinVisualiza
00A8                  00098 Entrada0Cerrado
00A8   20AE           00099         call    VisualizaCerrado
00A9                  00100 FinVisualiza
00A9   20E6           00101         call    RS232_LineasBlanco
00AA   0008           00102         return
                      00103 ;
00AB                  00104 VisualizaAbierto
00AB   3069           00105         movlw   MensajeAbierto          ; Visualiza el mensaje "Abierto"
00AC   20D8           00106         call    RS232_Mensaje           ; en el HyperTerminal.
00AD   0008           00107         return
00AE                  00108 VisualizaCerrado
00AE   3077           00109         movlw   MensajeCerrado          ; Visualiza el mensaje "Cerrado"
00AF   20D8           00110         call    RS232_Mensaje           ; en el HyperTerminal.
00B0   0008           00111         return
                      00112 
                      00113         INCLUDE  <RS232.INC>
                      00001 ;***************************** Librería "RS232.INC" *************************************
                      00002 ;
                      00003 ;       ===================================================================
                      00004 ;         Del libro "MICROCONTROLADOR PIC16F84A. DESARROLLO DE PROYECTOS"
MPASM 03.50 Released                             RS232_09.ASM   10-12-2000  20:06:18         PAGE  4


LOC  OBJECT CODE     LINE SOURCE TEXT
  VALUE

                      00005 ;         E. Palacios, F. Remiro y L. López.
                      00006 ;         Editorial Ra-Ma.  www.ra-ma.es
                      00007 ;       ===================================================================
                      00008 ;
                      00009 ; Estas subrutinas permiten realizar las tareas básicas de control de la transmisión
                      00010 ; seríe asincrona según normas RS-232.
                      00011 ;
                      00012 ; Los parámetros adoptados para la comunicación son los siguientes:
                      00013 ; - Velocidad de transmisión de 9600 baudios. La duración de cada bit será 104 µs.
                      00014 ; - Un bit de inicio ó Start a nivel bajo.
                      00015 ; - Dato de 8 bits.
                      00016 ; - Sin paridad.
                      00017 ; - Dos bits de final ó Stop a nivel alto.
                      00018 ;
                      00019 ; El tiempo entre bit y bit  debe coincidir con el período de la señal leída o enviada.
                      00020 ; Como la velocidad de transmisión ó recepción es de 9600 baudios, el período será:
                      00021 ; 1/9600Baudios= 104 µs. Se utilizará pues la subrutina "Retardos_100micros".
                      00022 
                      00023         CBLOCK
  0000000C            00024         RS232_ContadorBits
  0000000D            00025         RS232_Dato
                      00026         ENDC
                      00027 
                      00028 #DEFINE  RS232_Entrada  PORTA,3         ; Línea por la que se reciben los datos.
                      00029 #DEFINE  RS232_Salida   PORTA,4         ; Línea por la que se envían los datos.
                      00030 ;
                      00031 ; Subrutina "RS232_Inicializa" -------------------------------------------------------------
                      00032 ;
                      00033 ; Configura las líneas de salida y entrada del microcontrolador.
                      00034 
00B1                  00035 RS232_Inicializa
00B1   1683           00036         bsf     STATUS,RP0
00B2   1585           00037         bsf     RS232_Entrada           ; Esta línea se configura como entrada.
00B3   1205           00038         bcf     RS232_Salida            ; Esta línea se configura como salida.
00B4   1283           00039         bcf     STATUS,RP0
00B5   0008           00040         return
                      00041 
                      00042 ; Subrutina "RS232_LeeDato" -------------------------------------------------------------
                      00043 ;
                      00044 ; El microcontrolador lee el dato por la línea de entrada comenzando por el bit de menor
                      00045 ; peso. El dato leído se envía finalmente en el registro de trabajo W.
                      00046 ;
                      00047 ; El ordenador parte siempre de un nivel alto, que es el estado que tiene cuando no 
                      00048 ; envía información. La secuencia utilizada es:
                      00049 ; 1º    Espera que se ejecute el pulso negativo del bit Start, o flanco de bajada.
                      00050 ; 2º    Deja pasar un tiempo una y media veces mayor que el periodo de transmisión para
                      00051 ;       saltarse el bit de Start y lee el primer bit en su mitad.
                      00052 ; 3º    Lee el resto de los bits de datos, esperando un tiempo igual a la duración del
                      00053 ;       período entre lectura y lectura para testearlos en mitad del bit.
                      00054 ;
                      00055 ; Salida: En el registro de trabajo W el byte leído.
                      00056 
00B6                  00057 RS232_LeeDato
MPASM 03.50 Released                             RS232_09.ASM   10-12-2000  20:06:18         PAGE  5


LOC  OBJECT CODE     LINE SOURCE TEXT
  VALUE

00B6   3008           00058         movlw   d'8'                    ; Número de bits a recibir.
00B7   008C           00059         movwf   RS232_ContadorBits
00B8                  00060 RS232_EsperaBitStart
00B8   1985           00061         btfsc   RS232_Entrada           ; Lee la entrada y espera a que sea "0".
00B9   28B8           00062         goto    RS232_EsperaBitStart    ; No, pues espera el nivel bajo.
00BA   20FC           00063         call    Retardo_100micros               ; El primer bit debe leerlo un tiempo igual a una
00BB   20FE           00064         call    Retardo_50micros                ; vez y media el periodo de transmisión.
00BC                  00065 RS232_LeeBit
00BC   1003           00066         bcf     STATUS,C                ; Ahora lee el pin. En principio supone que es 0.
00BD   1985           00067         btfsc   RS232_Entrada           ; ¿Realmente es cero?.
00BE   1403           00068         bsf     STATUS,C                ; No, pues cambia a uno.
00BF   0C8D           00069         rrf     RS232_Dato,F            ; Introduce el bit en el registro de lectura.
00C0   20FC           00070         call    Retardo_100micros               ; Los siguientes bits los lee un período más tarde.
00C1   0B8C           00071         decfsz  RS232_ContadorBits,F    ; Comprueba que es el último bit.
00C2   28BC           00072         goto    RS232_LeeBit            ; Si no es el último bit, pasa a leer el siguiente.
00C3   20F9           00073         call    Retardo_200micros               ; Espera un tiempo igual al los 2 bits de "Stop".
00C4   080D           00074         movf    RS232_Dato,W            ; El resultado en el registro W.
00C5   0008           00075         return  
                      00076 
                      00077 ; Subrutinas "RS232_EnviaDato" y "RS232_EnviaNúmero" -------------------------------------
                      00078 ;
                      00079 ; El microcontrolador envía un dato por la línea de salida comenzando por el bit de menor
                      00080 ; peso. En dato enviado será el que le llegue a través del registro de trabajo W.
                      00081 ; 1º.   Envía un "0" durante un tiempo igual al período de la velocidad de transmisión.
                      00082 ;       Este es el bit de "Start".
                      00083 ; 2º.   Envía el bit correspondiente:
                      00084 ;       - Si va a enviar un "0" permanece en bajo durante el período correspondiente.
                      00085 ;       - Si va a escribir un "1" permanece en alto durante el período correspondiente.
                      00086 ; 3º.   Envía dos bits "1" durante un tiempo igual al período de la velocidad de 
                      00087 ;       transmisión cada uno. Estos son los dos bits de "Stop".
                      00088 ;
                      00089 ; Entrada:      En (W) el dato a enviar.
                      00090 
00C6                  00091 RS232_EnviaNumero                       ; Envía el código ASCII de un número.
00C6   3E30           00092         addlw   '0'                     ; Lo pasa a código ASCII sumándole el ASCII del 0.
00C7                  00093 RS232_EnviaDato
00C7   008D           00094         movwf   RS232_Dato              ; Guarda el contenido del byte a transmitir.
00C8   3008           00095         movlw   d'8'                    ; Este es el número de bits a transmitir.
00C9   008C           00096         movwf   RS232_ContadorBits
00CA   1205           00097         bcf     RS232_Salida            ; Bit de Start.
00CB   20FC           00098         call    Retardo_100micros
00CC                  00099 RS232_EnviaBit                          ; Comienza a enviar datos.
00CC   0C8D           00100         rrf     RS232_Dato,F            ; Lleva el bit que se quiere enviar al Carry para
00CD   1C03           00101         btfss   STATUS,C                ; deducir su valor. ¿Es un "1" el bit a transmitir?.
00CE   28D1           00102         goto    RS232_EnviaCero         ; No, pues envía un "0".
00CF                  00103 RS232_EnviaUno
00CF   1605           00104         bsf     RS232_Salida            ; Transmite un "1".
00D0   28D2           00105         goto    RS232_FinEnviaBit
00D1                  00106 RS232_EnviaCero
00D1   1205           00107         bcf     RS232_Salida            ; Transmite un "0".
00D2                  00108 RS232_FinEnviaBit
00D2   20FC           00109         call    Retardo_100micros               ; Este es el tiempo que estará en alto o bajo.
00D3   0B8C           00110         decfsz  RS232_ContadorBits,F    ; Comprueba que es el último bit.
MPASM 03.50 Released                             RS232_09.ASM   10-12-2000  20:06:18         PAGE  6


LOC  OBJECT CODE     LINE SOURCE TEXT
  VALUE

00D4   28CC           00111         goto    RS232_EnviaBit          ; Como no es el último bit repite la operación.
00D5   1605           00112         bsf     RS232_Salida            ; Envía dos bits de Stop.
00D6   20F9           00113         call    Retardo_200micros
00D7   0008           00114         return
                      00115         
                      00116 ;       ===================================================================
                      00117 ;         Del libro "MICROCONTROLADOR PIC16F84A. DESARROLLO DE PROYECTOS"
                      00118 ;         E. Palacios, F. Remiro y L. López.
                      00119 ;         Editorial Ra-Ma.  www.ra-ma.es
                      00120 ;       ===================================================================
                      00114         INCLUDE  <RS232MEN.INC>
                      00001 ;***************************** Librería "RS232MEN.INC" **********************************
                      00002 ;
                      00003 ;       ===================================================================
                      00004 ;         Del libro "MICROCONTROLADOR PIC16F84A. DESARROLLO DE PROYECTOS"
                      00005 ;         E. Palacios, F. Remiro y L. López.
                      00006 ;         Editorial Ra-Ma.  www.ra-ma.es
                      00007 ;       ===================================================================
                      00008 ;
                      00009 ; Estas subrutinas permiten transmitir mensajes desde el microcontrolador hacia el 
                      00010 ; ordenador a través del puerto serie RS232.
                      00011 ;
                      00012 ; Subrutina "RS232_Mensaje" -------------------------------------------------------------
                      00013 ;
                      00014 ; Envía por el puerto serie el mensaje apuntado por el registro W y grabado en memoria
                      00015 ; de programa del PIC. El mensaje se visualizará en el monitor del ordenador. Esta
                      00016 ; subrutina sigue la estructura de funcionamiento similar a la ya conocida "LCD_Mensaje"
                      00017 ; para visualización de mensajes en pantallas de  modulos LCD.
                      00018 ;
                      00019         CBLOCK
  0000000E            00020         RS232_ApuntaCaracter            ; Apunta al carácter a visualizar.
  0000000F            00021         RS232_ValorCaracter             ; Valor ASCII del carácter a visualizar.
                      00022         ENDC
                      00023 
00D8                  00024 RS232_Mensaje
00D8   008E           00025         movwf   RS232_ApuntaCaracter    ; Posición del primer carácter del mensaje.
00D9   3001           00026         movlw   Mensajes                        ; Halla la posición relativa del primer carácter
00DA   028E           00027         subwf   RS232_ApuntaCaracter,F  ; del mensaje respecto del comienzo de todos los
                      00028                                         ; mensajes (identificados mediante la etiqueta
                      00029                                         ; "Mensajes")
00DB   038E           00030         decf    RS232_ApuntaCaracter,F  ; Para compensar la posición que ocupa la 
00DC                  00031 RS232_VisualizaOtroCaracter                     ; instrucción "addwf PCL,F".
00DC   080E           00032         movf    RS232_ApuntaCaracter,W  ; Apunta al carácter a visualizar.
00DD   2001           00033         call    Mensajes                        ; Obtiene el código ASCII del carácter apuntado.
00DE   008F           00034         movwf   RS232_ValorCaracter     ; Guarda el valor de carácter.
00DF   088F           00035         movf    RS232_ValorCaracter,F   ; Lo único que hace es posicionar flag Z. En caso
00E0   1903           00036         btfsc   STATUS,Z                ; que sea "0x00", que es código indicador final 
00E1   28E5           00037         goto    RS232_FinMensaje                ; de mensaje, sale fuera.
00E2                  00038 RS232_NoUltimoCaracter
00E2   20C7           00039         call    RS232_EnviaDato         ; Visualiza el carácter ASCII leído.
00E3   0A8E           00040         incf    RS232_ApuntaCaracter,F  ; Apunta a la posición del siguiente carácter
00E4   28DC           00041         goto    RS232_VisualizaOtroCaracter     ; dentro del mensaje.
00E5                  00042 RS232_FinMensaje
MPASM 03.50 Released                             RS232_09.ASM   10-12-2000  20:06:18         PAGE  7


LOC  OBJECT CODE     LINE SOURCE TEXT
  VALUE

00E5   0008           00043         return
                      00044 
                      00045 ; Subrutina "RS232_LineasBlanco" ------------------------------------------------
                      00046 ;
                      00047 ; Visualiza unas cuantas líneas en blanco en el monitor del ordenador.
                      00048 
                      00049         CBLOCK
  00000010            00050         RS232_ContadorLineas
                      00051         ENDC
                      00052 
00E6                  00053 RS232_LineasBlanco
00E6   300A           00054         movlw   d'10'                   ; Por ejemplo este número de líneas en
00E7   0090           00055         movwf   RS232_ContadorLineas    ; blanco.
00E8                  00056 R232_LineasBlancoLazo
00E8   300A           00057         movlw   .10                     ; Código del salto de línea
00E9   20C7           00058         call    RS232_EnviaDato
00EA   0B90           00059         decfsz  RS232_ContadorLineas,F
00EB   28E8           00060         goto    R232_LineasBlancoLazo
00EC   300D           00061         movlw   .13                     ; Código del retorno de carro.
00ED   20C7           00062         call    RS232_EnviaDato         ; Finaliza con un retorno de carro.
00EE   0008           00063         return
                      00064         
                      00065 ;       ===================================================================
                      00066 ;         Del libro "MICROCONTROLADOR PIC16F84A. DESARROLLO DE PROYECTOS"
                      00067 ;         E. Palacios, F. Remiro y L. López.
                      00068 ;         Editorial Ra-Ma.  www.ra-ma.es
                      00069 ;       ===================================================================
                      00115         INCLUDE  <RETARDOS.INC>
                      00001 ;**************************** Librería "RETARDOS.INC" *********************************
                      00002 ;
                      00003 ;       ===================================================================
                      00004 ;         Del libro "MICROCONTROLADOR PIC16F84A. DESARROLLO DE PROYECTOS"
                      00005 ;         E. Palacios, F. Remiro y L. López.
                      00006 ;         Editorial Ra-Ma.  www.ra-ma.es
                      00007 ;       ===================================================================
                      00008 ;
                      00009 ; Librería con múltiples subrutinas de retardos, desde 4 microsegundos hasta 20 segundos. 
                      00010 ; Además se pueden implementar otras subrutinas muy fácilmente.
                      00011 ;
                      00012 ; Se han calculado para un sistema microcontrolador con un PIC trabajando con un cristal
                      00013 ; de cuarzo a 4 MHz. Como cada ciclo máquina son 4 ciclos de reloj, resulta que cada
                      00014 ; ciclo máquina tarda 4 x 1/4MHz = 1 µs.
                      00015 ;
                      00016 ; En los comentarios, "cm" significa "ciclos máquina".
                      00017 ;
                      00018 ; ZONA DE DATOS *********************************************************************
                      00019 
                      00020         CBLOCK
  00000011            00021         R_ContA                         ; Contadores para los retardos.
  00000012            00022         R_ContB
  00000013            00023         R_ContC
                      00024         ENDC
                      00025 ;
MPASM 03.50 Released                             RS232_09.ASM   10-12-2000  20:06:18         PAGE  8


LOC  OBJECT CODE     LINE SOURCE TEXT
  VALUE

                      00026 ; RETARDOS de 4 hasta 10 microsegundos ---------------------------------------------------
                      00027 ;
                      00028 ; A continuación retardos pequeños teniendo en cuenta que para una frecuencia de 4 MHZ,
                      00029 ; la llamada a subrutina "call" tarda 2 ciclos máquina, el retorno de subrutina
                      00030 ; "return" toma otros 2 ciclos máquina y cada instrucción "nop" tarda 1 ciclo máquina.
                      00031 ;
00EF                  00032 Retardo_10micros                                ; La llamada "call" aporta 2 ciclos máquina.
00EF   0000           00033         nop                             ; Aporta 1 ciclo máquina.
00F0   0000           00034         nop                             ; Aporta 1 ciclo máquina.
00F1   0000           00035         nop                             ; Aporta 1 ciclo máquina.
00F2   0000           00036         nop                             ; Aporta 1 ciclo máquina.
00F3   0000           00037         nop                             ; Aporta 1 ciclo máquina.
00F4                  00038 Retardo_5micros                         ; La llamada "call" aporta 2 ciclos máquina.
00F4   0000           00039         nop                             ; Aporta 1 ciclo máquina.
00F5                  00040 Retardo_4micros                         ; La llamada "call" aporta 2 ciclos máquina.
00F5   0008           00041         return                          ; El salto del retorno aporta 2 ciclos máquina.
                      00042 ;
                      00043 ; RETARDOS de 20 hasta 500 microsegundos ------------------------------------------------
                      00044 ;
00F6                  00045 Retardo_500micros                               ; La llamada "call" aporta 2 ciclos máquina.
00F6   0000           00046         nop                             ; Aporta 1 ciclo máquina.
00F7   30A4           00047         movlw   d'164'                  ; Aporta 1 ciclo máquina. Este es el valor de "K".
00F8   2902           00048         goto    RetardoMicros           ; Aporta 2 ciclos máquina.
00F9                  00049 Retardo_200micros                               ; La llamada "call" aporta 2 ciclos máquina.
00F9   0000           00050         nop                             ; Aporta 1 ciclo máquina.
00FA   3040           00051         movlw   d'64'                   ; Aporta 1 ciclo máquina. Este es el valor de "K".
00FB   2902           00052         goto    RetardoMicros           ; Aporta 2 ciclos máquina.
00FC                  00053 Retardo_100micros                               ; La llamada "call" aporta 2 ciclos máquina.
00FC   301F           00054         movlw   d'31'                   ; Aporta 1 ciclo máquina. Este es el valor de "K".
00FD   2902           00055         goto    RetardoMicros           ; Aporta 2 ciclos máquina.
00FE                  00056 Retardo_50micros                                ; La llamada "call" aporta 2 ciclos máquina.
00FE   0000           00057         nop                             ; Aporta 1 ciclo máquina.
00FF   300E           00058         movlw   d'14'                   ; Aporta 1 ciclo máquina. Este es el valor de "K".
0100   2902           00059         goto    RetardoMicros           ; Aporta 2 ciclos máquina.
0101                  00060 Retardo_20micros                                ; La llamada "call" aporta 2 ciclos máquina.
0101   3005           00061         movlw   d'5'                    ; Aporta 1 ciclo máquina. Este es el valor de "K".
                      00062 ;
                      00063 ; El próximo bloque "RetardoMicros" tarda:
                      00064 ; 1 + (K-1) + 2 + (K-1)x2 + 2 = (2 + 3K) ciclos máquina.
                      00065 ;
0102                  00066 RetardoMicros
0102   0091           00067         movwf   R_ContA                 ; Aporta 1 ciclo máquina.
0103                  00068 Rmicros_Bucle
0103   0B91           00069         decfsz  R_ContA,F               ; (K-1)x1 cm (cuando no salta) + 2 cm (al saltar).
0104   2903           00070         goto    Rmicros_Bucle           ; Aporta (K-1)x2 ciclos máquina.
0105   0008           00071         return                          ; El salto del retorno aporta 2 ciclos máquina.
                      00072 ;
                      00073 ;En total estas subrutinas tardan:
                      00074 ; - Retardo_500micros:  2 + 1 + 1 + 2 + (2 + 3K) = 500 cm = 500 µs. (para K=164 y 4 MHz).
                      00075 ; - Retardo_200micros:  2 + 1 + 1 + 2 + (2 + 3K) = 200 cm = 200 µs. (para K= 64 y 4 MHz).
                      00076 ; - Retardo_100micros:  2     + 1 + 2 + (2 + 3K) = 100 cm = 100 µs. (para K= 31 y 4 MHz).
                      00077 ; - Retardo_50micros :  2 + 1 + 1 + 2 + (2 + 3K) =  50 cm =  50 µs. (para K= 14 y 4 MHz).
                      00078 ; - Retardo_20micros :  2     + 1     + (2 + 3K) =  20 cm =  20 µs. (para K=  5 y 4 MHz).
MPASM 03.50 Released                             RS232_09.ASM   10-12-2000  20:06:18         PAGE  9


LOC  OBJECT CODE     LINE SOURCE TEXT
  VALUE

                      00079 ;
                      00080 ; RETARDOS de 1 ms hasta 200 ms. --------------------------------------------------------
                      00081 ;
0106                  00082 Retardo_200ms                           ; La llamada "call" aporta 2 ciclos máquina.
0106   30C8           00083         movlw   d'200'                  ; Aporta 1 ciclo máquina. Este es el valor de "M".
0107   2915           00084         goto    Retardos_ms             ; Aporta 2 ciclos máquina.
0108                  00085 Retardo_100ms                           ; La llamada "call" aporta 2 ciclos máquina.
0108   3064           00086         movlw   d'100'                  ; Aporta 1 ciclo máquina. Este es el valor de "M".
0109   2915           00087         goto    Retardos_ms             ; Aporta 2 ciclos máquina.
010A                  00088 Retardo_50ms                            ; La llamada "call" aporta 2 ciclos máquina.
010A   3032           00089         movlw   d'50'                   ; Aporta 1 ciclo máquina. Este es el valor de "M".
010B   2915           00090         goto    Retardos_ms             ; Aporta 2 ciclos máquina.
010C                  00091 Retardo_20ms                            ; La llamada "call" aporta 2 ciclos máquina.
010C   3014           00092         movlw   d'20'                   ; Aporta 1 ciclo máquina. Este es el valor de "M".
010D   2915           00093         goto    Retardos_ms             ; Aporta 2 ciclos máquina.
010E                  00094 Retardo_10ms                            ; La llamada "call" aporta 2 ciclos máquina.
010E   300A           00095         movlw   d'10'                   ; Aporta 1 ciclo máquina. Este es el valor de "M".
010F   2915           00096         goto    Retardos_ms             ; Aporta 2 ciclos máquina.
0110                  00097 Retardo_5ms                             ; La llamada "call" aporta 2 ciclos máquina.
0110   3005           00098         movlw   d'5'                    ; Aporta 1 ciclo máquina. Este es el valor de "M".
0111   2915           00099         goto    Retardos_ms             ; Aporta 2 ciclos máquina.
0112                  00100 Retardo_2ms                             ; La llamada "call" aporta 2 ciclos máquina.
0112   3002           00101         movlw   d'2'                    ; Aporta 1 ciclo máquina. Este es el valor de "M".
0113   2915           00102         goto    Retardos_ms             ; Aporta 2 ciclos máquina.
0114                  00103 Retardo_1ms                             ; La llamada "call" aporta 2 ciclos máquina.
0114   3001           00104         movlw   d'1'                    ; Aporta 1 ciclo máquina. Este es el valor de "M".
                      00105 ;
                      00106 ; El próximo bloque "Retardos_ms" tarda:
                      00107 ; 1 + M + M + KxM + (K-1)xM + Mx2 + (K-1)Mx2 + (M-1) + 2 + (M-1)x2 + 2 =
                      00108 ; = (2 + 4M + 4KM) ciclos máquina. Para K=249 y M=1 supone 1002 ciclos máquina
                      00109 ; que a 4 MHz son 1002 µs = 1 ms.
                      00110 ;
0115                  00111 Retardos_ms
0115   0092           00112         movwf   R_ContB                 ; Aporta 1 ciclo máquina.
0116                  00113 R1ms_BucleExterno
0116   30F9           00114         movlw   d'249'                  ; Aporta Mx1 ciclos máquina. Este es el valor de "K".
0117   0091           00115         movwf   R_ContA                 ; Aporta Mx1 ciclos máquina.
0118                  00116 R1ms_BucleInterno
0118   0000           00117         nop                             ; Aporta KxMx1 ciclos máquina.
0119   0B91           00118         decfsz  R_ContA,F               ; (K-1)xMx1 cm (cuando no salta) + Mx2 cm (al saltar).
011A   2918           00119         goto    R1ms_BucleInterno               ; Aporta (K-1)xMx2 ciclos máquina.
011B   0B92           00120         decfsz  R_ContB,F               ; (M-1)x1 cm (cuando no salta) + 2 cm (al saltar).
011C   2916           00121         goto    R1ms_BucleExterno       ; Aporta (M-1)x2 ciclos máquina.
011D   0008           00122         return                          ; El salto del retorno aporta 2 ciclos máquina.
                      00123 ;
                      00124 ;En total estas subrutinas tardan:
                      00125 ; - Retardo_200ms:      2 + 1 + 2 + (2 + 4M + 4KM) = 200007 cm = 200 ms. (M=200 y K=249).
                      00126 ; - Retardo_100ms:      2 + 1 + 2 + (2 + 4M + 4KM) = 100007 cm = 100 ms. (M=100 y K=249).
                      00127 ; - Retardo_50ms :      2 + 1 + 2 + (2 + 4M + 4KM) =  50007 cm =  50 ms. (M= 50 y K=249).
                      00128 ; - Retardo_20ms :      2 + 1 + 2 + (2 + 4M + 4KM) =  20007 cm =  20 ms. (M= 20 y K=249).
                      00129 ; - Retardo_10ms :      2 + 1 + 2 + (2 + 4M + 4KM) =  10007 cm =  10 ms. (M= 10 y K=249).
                      00130 ; - Retardo_5ms  :      2 + 1 + 2 + (2 + 4M + 4KM) =   5007 cm =   5 ms. (M=  5 y K=249).
                      00131 ; - Retardo_2ms  :      2 + 1 + 2 + (2 + 4M + 4KM) =   2007 cm =   2 ms. (M=  2 y K=249).
MPASM 03.50 Released                             RS232_09.ASM   10-12-2000  20:06:18         PAGE 10


LOC  OBJECT CODE     LINE SOURCE TEXT
  VALUE

                      00132 ; - Retardo_1ms  :      2 + 1     + (2 + 4M + 4KM) =   1005 cm =   1 ms. (M=  1 y K=249).
                      00133 ;
                      00134 ; RETARDOS de 0.5 hasta 20 segundos ---------------------------------------------------
                      00135 ;
011E                  00136 Retardo_20s                             ; La llamada "call" aporta 2 ciclos máquina.
011E   30C8           00137         movlw   d'200'                  ; Aporta 1 ciclo máquina. Este es el valor de "N".
011F   2929           00138         goto    Retardo_1Decima         ; Aporta 2 ciclos máquina.
0120                  00139 Retardo_10s                             ; La llamada "call" aporta 2 ciclos máquina.
0120   3064           00140         movlw   d'100'                  ; Aporta 1 ciclo máquina. Este es el valor de "N".
0121   2929           00141         goto    Retardo_1Decima         ; Aporta 2 ciclos máquina.
0122                  00142 Retardo_5s                              ; La llamada "call" aporta 2 ciclos máquina.
0122   3032           00143         movlw   d'50'                   ; Aporta 1 ciclo máquina. Este es el valor de "N".
0123   2929           00144         goto    Retardo_1Decima         ; Aporta 2 ciclos máquina.
0124                  00145 Retardo_2s                              ; La llamada "call" aporta 2 ciclos máquina.
0124   3014           00146         movlw   d'20'                   ; Aporta 1 ciclo máquina. Este es el valor de "N".
0125   2929           00147         goto    Retardo_1Decima         ; Aporta 2 ciclos máquina.
0126                  00148 Retardo_1s                              ; La llamada "call" aporta 2 ciclos máquina.
0126   300A           00149         movlw   d'10'                   ; Aporta 1 ciclo máquina. Este es el valor de "N".
0127   2929           00150         goto    Retardo_1Decima         ; Aporta 2 ciclos máquina.
0128                  00151 Retardo_500ms                           ; La llamada "call" aporta 2 ciclos máquina.
0128   3005           00152         movlw   d'5'                    ; Aporta 1 ciclo máquina. Este es el valor de "N".
                      00153 ;
                      00154 ; El próximo bloque "Retardo_1Decima" tarda:
                      00155 ; 1 + N + N + MxN + MxN + KxMxN + (K-1)xMxN + MxNx2 + (K-1)xMxNx2 +
                      00156 ;   + (M-1)xN + Nx2 + (M-1)xNx2 + (N-1) + 2 + (N-1)x2 + 2 =
                      00157 ; = (2 + 4M + 4MN + 4KM) ciclos máquina. Para K=249, M=100 y N=1 supone 100011
                      00158 ; ciclos máquina que a 4 MHz son 100011 µs = 100 ms = 0,1 s = 1 décima de segundo.
                      00159 ;
0129                  00160 Retardo_1Decima
0129   0093           00161         movwf   R_ContC                 ; Aporta 1 ciclo máquina.
012A                  00162 R1Decima_BucleExterno2
012A   3064           00163         movlw   d'100'                  ; Aporta Nx1 ciclos máquina. Este es el valor de "M".
012B   0092           00164         movwf   R_ContB                 ; Aporta Nx1 ciclos máquina.
012C                  00165 R1Decima_BucleExterno
012C   30F9           00166         movlw   d'249'                  ; Aporta MxNx1 ciclos máquina. Este es el valor de "K".
012D   0091           00167         movwf   R_ContA                 ; Aporta MxNx1 ciclos máquina.
012E                  00168 R1Decima_BucleInterno          
012E   0000           00169         nop                             ; Aporta KxMxNx1 ciclos máquina.
012F   0B91           00170         decfsz  R_ContA,F               ; (K-1)xMxNx1 cm (si no salta) + MxNx2 cm (al saltar).
0130   292E           00171         goto    R1Decima_BucleInterno   ; Aporta (K-1)xMxNx2 ciclos máquina.
0131   0B92           00172         decfsz  R_ContB,F               ; (M-1)xNx1 cm (cuando no salta) + Nx2 cm (al saltar).
0132   292C           00173         goto    R1Decima_BucleExterno   ; Aporta (M-1)xNx2 ciclos máquina.
0133   0B93           00174         decfsz  R_ContC,F               ; (N-1)x1 cm (cuando no salta) + 2 cm (al saltar).
0134   292A           00175         goto    R1Decima_BucleExterno2  ; Aporta (N-1)x2 ciclos máquina.
0135   0008           00176         return                          ; El salto del retorno aporta 2 ciclos máquina.
                      00177 ;
                      00178 ;En total estas subrutinas tardan:
                      00179 ; - Retardo_20s:        2 + 1 + 2 + (2 + 4N + 4MN + 4KMN) = 20000807 cm = 20 s.
                      00180 ;                       (N=200, M=100 y K=249).
                      00181 ; - Retardo_10s:        2 + 1 + 2 + (2 + 4N + 4MN + 4KMN) = 10000407 cm = 10 s.
                      00182 ;                       (N=100, M=100 y K=249).
                      00183 ; - Retardo_5s:         2 + 1 + 2 + (2 + 4N + 4MN + 4KMN) =  5000207 cm =  5 s.
                      00184 ;                       (N= 50, M=100 y K=249).
MPASM 03.50 Released                             RS232_09.ASM   10-12-2000  20:06:18         PAGE 11


LOC  OBJECT CODE     LINE SOURCE TEXT
  VALUE

                      00185 ; - Retardo_2s:         2 + 1 + 2 + (2 + 4N + 4MN + 4KMN) =  2000087 cm =  2 s.
                      00186 ;                       (N= 20, M=100 y K=249).
                      00187 ; - Retardo_1s:         2 + 1 + 2 + (2 + 4N + 4MN + 4KMN) =  1000047 cm =  1 s.
                      00188 ;                       (N= 10, M=100 y K=249).
                      00189 ; - Retardo_500ms:      2 + 1     + (2 + 4N + 4MN + 4KMN) =   500025 cm = 0,5 s.
                      00190 ;                       (N=  5, M=100 y K=249).
                      00116         END
MPASM 03.50 Released                             RS232_09.ASM   10-12-2000  20:06:18         PAGE 12


SYMBOL TABLE
  LABEL                             VALUE 

C                                 00000000
CambioLinea                       0000000A
DC                                00000001
EEADR                             00000009
EECON1                            00000088
EECON2                            00000089
EEDATA                            00000008
EEIE                              00000006
EEIF                              00000004
Entrada0                          PORTB,4
Entrada0Cerrado                   000000A8
Entrada1                          PORTB,5
Entrada1Cerrado                   000000A3
Entrada2                          PORTB,6
Entrada2Cerrado                   0000009E
Entrada3                          PORTB,7
Entrada3Cerrado                   00000099
F                                 00000001
FSR                               00000004
FinVisualiza                      000000A9
GIE                               00000007
INDF                              00000000
INTCON                            0000000B
INTE                              00000004
INTEDG                            00000006
INTF                              00000001
IRP                               00000007
Inicio                            00000085
LeeEntrada0                       000000A4
LeeEntrada1                       0000009F
LeeEntrada2                       0000009A
LeeEntrada3                       00000095
LeeEntradasVisualiza              00000092
MensajeAbierto                    00000069
MensajeCerrado                    00000077
MensajeEntradas                   00000002
Mensajes                          00000001
NOT_PD                            00000003
NOT_RBPU                          00000007
NOT_TO                            00000004
OPTION_REG                        00000081
PCL                               00000002
PCLATH                            0000000A
PORTA                             00000005
PORTB                             00000006
PS0                               00000000
PS1                               00000001
PS2                               00000002
PSA                               00000003
Principal                         0000008E
R1Decima_BucleExterno             0000012C
R1Decima_BucleExterno2            0000012A
R1Decima_BucleInterno             0000012E
MPASM 03.50 Released                             RS232_09.ASM   10-12-2000  20:06:18         PAGE 13


SYMBOL TABLE
  LABEL                             VALUE 

R1ms_BucleExterno                 00000116
R1ms_BucleInterno                 00000118
R232_LineasBlancoLazo             000000E8
RBIE                              00000003
RBIF                              00000000
RD                                00000000
RP0                               00000005
RP1                               00000006
RS232_ApuntaCaracter              0000000E
RS232_ContadorBits                0000000C
RS232_ContadorLineas              00000010
RS232_Dato                        0000000D
RS232_Entrada                     PORTA,3
RS232_EnviaBit                    000000CC
RS232_EnviaCero                   000000D1
RS232_EnviaDato                   000000C7
RS232_EnviaNumero                 000000C6
RS232_EnviaUno                    000000CF
RS232_EsperaBitStart              000000B8
RS232_FinEnviaBit                 000000D2
RS232_FinMensaje                  000000E5
RS232_Inicializa                  000000B1
RS232_LeeBit                      000000BC
RS232_LeeDato                     000000B6
RS232_LineasBlanco                000000E6
RS232_Mensaje                     000000D8
RS232_NoUltimoCaracter            000000E2
RS232_Salida                      PORTA,4
RS232_ValorCaracter               0000000F
RS232_VisualizaOtroCaracter       000000DC
R_ContA                           00000011
R_ContB                           00000012
R_ContC                           00000013
RetardoMicros                     00000102
Retardo_100micros                 000000FC
Retardo_100ms                     00000108
Retardo_10micros                  000000EF
Retardo_10ms                      0000010E
Retardo_10s                       00000120
Retardo_1Decima                   00000129
Retardo_1ms                       00000114
Retardo_1s                        00000126
Retardo_200micros                 000000F9
Retardo_200ms                     00000106
Retardo_20micros                  00000101
Retardo_20ms                      0000010C
Retardo_20s                       0000011E
Retardo_2ms                       00000112
Retardo_2s                        00000124
Retardo_4micros                   000000F5
Retardo_500micros                 000000F6
Retardo_500ms                     00000128
Retardo_50micros                  000000FE
MPASM 03.50 Released                             RS232_09.ASM   10-12-2000  20:06:18         PAGE 14


SYMBOL TABLE
  LABEL                             VALUE 

Retardo_50ms                      0000010A
Retardo_5micros                   000000F4
Retardo_5ms                       00000110
Retardo_5s                        00000122
Retardos_ms                       00000115
RetornoCarro                      0000000D
Rmicros_Bucle                     00000103
STATUS                            00000003
T0CS                              00000005
T0IE                              00000005
T0IF                              00000002
T0SE                              00000004
TMR0                              00000001
TRISA                             00000085
TRISB                             00000086
VisualizaAbierto                  000000AB
VisualizaCerrado                  000000AE
W                                 00000000
WR                                00000001
WREN                              00000002
WRERR                             00000003
Z                                 00000002
_CP_OFF                           00003FFF
_CP_ON                            0000000F
_HS_OSC                           00003FFE
_LP_OSC                           00003FFC
_PWRTE_OFF                        00003FFF
_PWRTE_ON                         00003FF7
_RC_OSC                           00003FFF
_WDT_OFF                          00003FFB
_WDT_ON                           00003FFF
_XT_OSC                           00003FFD
__16F84A                          00000001


MEMORY USAGE MAP ('X' = Used,  '-' = Unused)

0000 : XXXXXXXXXXXXXXXX XXXXXXXXXXXXXXXX XXXXXXXXXXXXXXXX XXXXXXXXXXXXXXXX
0040 : XXXXXXXXXXXXXXXX XXXXXXXXXXXXXXXX XXXXXXXXXXXXXXXX XXXXXXXXXXXXXXXX
0080 : XXXXXXXXXXXXXXXX XXXXXXXXXXXXXXXX XXXXXXXXXXXXXXXX XXXXXXXXXXXXXXXX
00C0 : XXXXXXXXXXXXXXXX XXXXXXXXXXXXXXXX XXXXXXXXXXXXXXXX XXXXXXXXXXXXXXXX
0100 : XXXXXXXXXXXXXXXX XXXXXXXXXXXXXXXX XXXXXXXXXXXXXXXX XXXXXX----------
2000 : -------X-------- ---------------- ---------------- ----------------

All other memory blocks unused.

Program Memory Words Used:   310
Program Memory Words Free:   714


MPASM 03.50 Released                             RS232_09.ASM   10-12-2000  20:06:18         PAGE 15





Errors   :     0
Warnings :     0 reported,     0 suppressed
Messages :     1 reported,     0 suppressed

