MPLINK 4.49, Linker
Linker Map File - Created Wed Jun 07 23:25:01 2023

                                 Section Info
                  Section       Type    Address   Location Size(Bytes)
                ---------  ---------  ---------  ---------  ---------
                   .org_0       code   0x000000    program   0x000000
                   .org_1       code   0x000000    program   0x000268
.config_2007_MENSAJE_03.O       code   0x002007    program   0x000002



                              Program Memory Usage 
                               Start         End      
                           ---------   ---------      
                            0x000000    0x000133      
                            0x002007    0x002007      
            309 out of 1094 program addresses used, program memory utilization is 28%



                              Symbols - Sorted by Name
                     Name    Address   Location    Storage File                     
                ---------  ---------  ---------  --------- ---------                
                   Inicio   0x000000    program     static E:\00.-MPLAB\00.-PIC16F84A\MENSAJE_03\Mensaje_03.asm
      LCD_2Lineas4Bits5x7   0x00007f    program     static E:\00.-MPLAB\00.-PIC16F84A\MENSAJE_03\LCD_4BIT.INC
                LCD_Borra   0x00007d    program     static E:\00.-MPLAB\00.-PIC16F84A\MENSAJE_03\LCD_4BIT.INC
                 LCD_Byte   0x0000af    program     static E:\00.-MPLAB\00.-PIC16F84A\MENSAJE_03\LCD_4BIT.INC
         LCD_ByteCompleto   0x0000b6    program     static E:\00.-MPLAB\00.-PIC16F84A\MENSAJE_03\LCD_4BIT.INC
             LCD_Caracter   0x000082    program     static E:\00.-MPLAB\00.-PIC16F84A\MENSAJE_03\LCD_4BIT.INC
          LCD_CodigoCGROM   0x00008c    program     static E:\00.-MPLAB\00.-PIC16F84A\MENSAJE_03\LCD_4BIT.INC
           LCD_CursorIncr   0x00006d    program     static E:\00.-MPLAB\00.-PIC16F84A\MENSAJE_03\LCD_4BIT.INC
            LCD_CursorOFF   0x00007b    program     static E:\00.-MPLAB\00.-PIC16F84A\MENSAJE_03\LCD_4BIT.INC
             LCD_CursorON   0x000079    program     static E:\00.-MPLAB\00.-PIC16F84A\MENSAJE_03\LCD_4BIT.INC
   LCD_DosEspaciosBlancos   0x0000a6    program     static E:\00.-MPLAB\00.-PIC16F84A\MENSAJE_03\LCD_4BIT.INC
        LCD_EnheMayuscula   0x000093    program     static E:\00.-MPLAB\00.-PIC16F84A\MENSAJE_03\LCD_4BIT.INC
        LCD_EnheMinuscula   0x00008d    program     static E:\00.-MPLAB\00.-PIC16F84A\MENSAJE_03\LCD_4BIT.INC
                LCD_Envia   0x000084    program     static E:\00.-MPLAB\00.-PIC16F84A\MENSAJE_03\LCD_4BIT.INC
         LCD_EnviaBlancos   0x0000a9    program     static E:\00.-MPLAB\00.-PIC16F84A\MENSAJE_03\LCD_4BIT.INC
       LCD_EnviaByteLetra   0x0000c2    program     static E:\00.-MPLAB\00.-PIC16F84A\MENSAJE_03\LCD_4BIT.INC
         LCD_EnviaComando   0x000080    program     static E:\00.-MPLAB\00.-PIC16F84A\MENSAJE_03\LCD_4BIT.INC
      LCD_EnviaOtroBlanco   0x0000aa    program     static E:\00.-MPLAB\00.-PIC16F84A\MENSAJE_03\LCD_4BIT.INC
         LCD_EsFinalLinea   0x0000dd    program     static E:\00.-MPLAB\00.-PIC16F84A\MENSAJE_03\LCD_MENS.INC
           LCD_EscribeLCD   0x000056    program     static E:\00.-MPLAB\00.-PIC16F84A\MENSAJE_03\LCD_4BIT.INC
             LCD_FinCGROM   0x0000a0    program     static E:\00.-MPLAB\00.-PIC16F84A\MENSAJE_03\LCD_4BIT.INC
           LCD_FinMensaje   0x0000d2    program     static E:\00.-MPLAB\00.-PIC16F84A\MENSAJE_03\LCD_MENS.INC
        LCD_FinMovimiento   0x0000ec    program     static E:\00.-MPLAB\00.-PIC16F84A\MENSAJE_03\LCD_MENS.INC
   LCD_FinVisualizaDigito   0x0000c4    program     static E:\00.-MPLAB\00.-PIC16F84A\MENSAJE_03\LCD_4BIT.INC
                LCD_Grado   0x00009a    program     static E:\00.-MPLAB\00.-PIC16F84A\MENSAJE_03\LCD_4BIT.INC
           LCD_Inicializa   0x00003e    program     static E:\00.-MPLAB\00.-PIC16F84A\MENSAJE_03\LCD_4BIT.INC
               LCD_Linea1   0x00006f    program     static E:\00.-MPLAB\00.-PIC16F84A\MENSAJE_03\LCD_4BIT.INC
               LCD_Linea2   0x000071    program     static E:\00.-MPLAB\00.-PIC16F84A\MENSAJE_03\LCD_4BIT.INC
        LCD_LineaEnBlanco   0x0000a2    program     static E:\00.-MPLAB\00.-PIC16F84A\MENSAJE_03\LCD_4BIT.INC
              LCD_Mensaje   0x0000c5    program     static E:\00.-MPLAB\00.-PIC16F84A\MENSAJE_03\LCD_MENS.INC
    LCD_MensajeMovimiento   0x0000d3    program     static E:\00.-MPLAB\00.-PIC16F84A\MENSAJE_03\LCD_MENS.INC
               LCD_Nibble   0x0000ba    program     static E:\00.-MPLAB\00.-PIC16F84A\MENSAJE_03\LCD_4BIT.INC
       LCD_NoEsFinalLinea   0x0000e2    program     static E:\00.-MPLAB\00.-PIC16F84A\MENSAJE_03\LCD_MENS.INC
     LCD_NoUltimoCaracter   0x0000cf    program     static E:\00.-MPLAB\00.-PIC16F84A\MENSAJE_03\LCD_MENS.INC
    LCD_NoUltimoCaracter2   0x0000e8    program     static E:\00.-MPLAB\00.-PIC16F84A\MENSAJE_03\LCD_MENS.INC
                  LCD_OFF   0x000077    program     static E:\00.-MPLAB\00.-PIC16F84A\MENSAJE_03\LCD_4BIT.INC
       LCD_PosicionLinea1   0x000073    program     static E:\00.-MPLAB\00.-PIC16F84A\MENSAJE_03\LCD_4BIT.INC
       LCD_PosicionLinea2   0x000075    program     static E:\00.-MPLAB\00.-PIC16F84A\MENSAJE_03\LCD_4BIT.INC
      LCD_PrimeraPosicion   0x0000d7    program     static E:\00.-MPLAB\00.-PIC16F84A\MENSAJE_03\LCD_MENS.INC
  LCD_TresEspaciosBlancos   0x0000a8    program     static E:\00.-MPLAB\00.-PIC16F84A\MENSAJE_03\LCD_4BIT.INC
      LCD_UnEspacioBlanco   0x0000a4    program     static E:\00.-MPLAB\00.-PIC16F84A\MENSAJE_03\LCD_4BIT.INC
        LCD_VisualizaAlto   0x0000b7    program     static E:\00.-MPLAB\00.-PIC16F84A\MENSAJE_03\LCD_4BIT.INC
        LCD_VisualizaBajo   0x0000b9    program     static E:\00.-MPLAB\00.-PIC16F84A\MENSAJE_03\LCD_4BIT.INC
    LCD_VisualizaCaracter   0x0000d9    program     static E:\00.-MPLAB\00.-PIC16F84A\MENSAJE_03\LCD_MENS.INC
LCD_VisualizaOtroCaracter   0x0000c9    program     static E:\00.-MPLAB\00.-PIC16F84A\MENSAJE_03\LCD_MENS.INC
                 Mensaje0   0x00000f    program     static E:\00.-MPLAB\00.-PIC16F84A\MENSAJE_03\Mensaje_03.asm
                 Mensaje1   0x00001f    program     static E:\00.-MPLAB\00.-PIC16F84A\MENSAJE_03\Mensaje_03.asm
                 Mensaje2   0x00002e    program     static E:\00.-MPLAB\00.-PIC16F84A\MENSAJE_03\Mensaje_03.asm
                 Mensajes   0x00000e    program     static E:\00.-MPLAB\00.-PIC16F84A\MENSAJE_03\Mensaje_03.asm
                Principal   0x000001    program     static E:\00.-MPLAB\00.-PIC16F84A\MENSAJE_03\Mensaje_03.asm
    R1Decima_BucleExterno   0x00012a    program     static E:\00.-MPLAB\00.-PIC16F84A\MENSAJE_03\RETARDOS.INC
   R1Decima_BucleExterno2   0x000128    program     static E:\00.-MPLAB\00.-PIC16F84A\MENSAJE_03\RETARDOS.INC
    R1Decima_BucleInterno   0x00012c    program     static E:\00.-MPLAB\00.-PIC16F84A\MENSAJE_03\RETARDOS.INC
        R1ms_BucleExterno   0x000114    program     static E:\00.-MPLAB\00.-PIC16F84A\MENSAJE_03\RETARDOS.INC
        R1ms_BucleInterno   0x000116    program     static E:\00.-MPLAB\00.-PIC16F84A\MENSAJE_03\RETARDOS.INC
            RetardoMicros   0x000100    program     static E:\00.-MPLAB\00.-PIC16F84A\MENSAJE_03\RETARDOS.INC
        Retardo_100micros   0x0000fa    program     static E:\00.-MPLAB\00.-PIC16F84A\MENSAJE_03\RETARDOS.INC
            Retardo_100ms   0x000106    program     static E:\00.-MPLAB\00.-PIC16F84A\MENSAJE_03\RETARDOS.INC
         Retardo_10micros   0x0000ed    program     static E:\00.-MPLAB\00.-PIC16F84A\MENSAJE_03\RETARDOS.INC
             Retardo_10ms   0x00010c    program     static E:\00.-MPLAB\00.-PIC16F84A\MENSAJE_03\RETARDOS.INC
              Retardo_10s   0x00011e    program     static E:\00.-MPLAB\00.-PIC16F84A\MENSAJE_03\RETARDOS.INC
          Retardo_1Decima   0x000127    program     static E:\00.-MPLAB\00.-PIC16F84A\MENSAJE_03\RETARDOS.INC
              Retardo_1ms   0x000112    program     static E:\00.-MPLAB\00.-PIC16F84A\MENSAJE_03\RETARDOS.INC
               Retardo_1s   0x000124    program     static E:\00.-MPLAB\00.-PIC16F84A\MENSAJE_03\RETARDOS.INC
        Retardo_200micros   0x0000f7    program     static E:\00.-MPLAB\00.-PIC16F84A\MENSAJE_03\RETARDOS.INC
            Retardo_200ms   0x000104    program     static E:\00.-MPLAB\00.-PIC16F84A\MENSAJE_03\RETARDOS.INC
         Retardo_20micros   0x0000ff    program     static E:\00.-MPLAB\00.-PIC16F84A\MENSAJE_03\RETARDOS.INC
             Retardo_20ms   0x00010a    program     static E:\00.-MPLAB\00.-PIC16F84A\MENSAJE_03\RETARDOS.INC
              Retardo_20s   0x00011c    program     static E:\00.-MPLAB\00.-PIC16F84A\MENSAJE_03\RETARDOS.INC
              Retardo_2ms   0x000110    program     static E:\00.-MPLAB\00.-PIC16F84A\MENSAJE_03\RETARDOS.INC
               Retardo_2s   0x000122    program     static E:\00.-MPLAB\00.-PIC16F84A\MENSAJE_03\RETARDOS.INC
          Retardo_4micros   0x0000f3    program     static E:\00.-MPLAB\00.-PIC16F84A\MENSAJE_03\RETARDOS.INC
        Retardo_500micros   0x0000f4    program     static E:\00.-MPLAB\00.-PIC16F84A\MENSAJE_03\RETARDOS.INC
            Retardo_500ms   0x000126    program     static E:\00.-MPLAB\00.-PIC16F84A\MENSAJE_03\RETARDOS.INC
         Retardo_50micros   0x0000fc    program     static E:\00.-MPLAB\00.-PIC16F84A\MENSAJE_03\RETARDOS.INC
             Retardo_50ms   0x000108    program     static E:\00.-MPLAB\00.-PIC16F84A\MENSAJE_03\RETARDOS.INC
          Retardo_5micros   0x0000f2    program     static E:\00.-MPLAB\00.-PIC16F84A\MENSAJE_03\RETARDOS.INC
              Retardo_5ms   0x00010e    program     static E:\00.-MPLAB\00.-PIC16F84A\MENSAJE_03\RETARDOS.INC
               Retardo_5s   0x000120    program     static E:\00.-MPLAB\00.-PIC16F84A\MENSAJE_03\RETARDOS.INC
              Retardos_ms   0x000113    program     static E:\00.-MPLAB\00.-PIC16F84A\MENSAJE_03\RETARDOS.INC
            Rmicros_Bucle   0x000101    program     static E:\00.-MPLAB\00.-PIC16F84A\MENSAJE_03\RETARDOS.INC
                Visualiza   0x000009    program     static E:\00.-MPLAB\00.-PIC16F84A\MENSAJE_03\Mensaje_03.asm



                              Symbols - Sorted by Address
                     Name    Address   Location    Storage File                     
                ---------  ---------  ---------  --------- ---------                
                   Inicio   0x000000    program     static E:\00.-MPLAB\00.-PIC16F84A\MENSAJE_03\Mensaje_03.asm
                Principal   0x000001    program     static E:\00.-MPLAB\00.-PIC16F84A\MENSAJE_03\Mensaje_03.asm
                Visualiza   0x000009    program     static E:\00.-MPLAB\00.-PIC16F84A\MENSAJE_03\Mensaje_03.asm
                 Mensajes   0x00000e    program     static E:\00.-MPLAB\00.-PIC16F84A\MENSAJE_03\Mensaje_03.asm
                 Mensaje0   0x00000f    program     static E:\00.-MPLAB\00.-PIC16F84A\MENSAJE_03\Mensaje_03.asm
                 Mensaje1   0x00001f    program     static E:\00.-MPLAB\00.-PIC16F84A\MENSAJE_03\Mensaje_03.asm
                 Mensaje2   0x00002e    program     static E:\00.-MPLAB\00.-PIC16F84A\MENSAJE_03\Mensaje_03.asm
           LCD_Inicializa   0x00003e    program     static E:\00.-MPLAB\00.-PIC16F84A\MENSAJE_03\LCD_4BIT.INC
           LCD_EscribeLCD   0x000056    program     static E:\00.-MPLAB\00.-PIC16F84A\MENSAJE_03\LCD_4BIT.INC
           LCD_CursorIncr   0x00006d    program     static E:\00.-MPLAB\00.-PIC16F84A\MENSAJE_03\LCD_4BIT.INC
               LCD_Linea1   0x00006f    program     static E:\00.-MPLAB\00.-PIC16F84A\MENSAJE_03\LCD_4BIT.INC
               LCD_Linea2   0x000071    program     static E:\00.-MPLAB\00.-PIC16F84A\MENSAJE_03\LCD_4BIT.INC
       LCD_PosicionLinea1   0x000073    program     static E:\00.-MPLAB\00.-PIC16F84A\MENSAJE_03\LCD_4BIT.INC
       LCD_PosicionLinea2   0x000075    program     static E:\00.-MPLAB\00.-PIC16F84A\MENSAJE_03\LCD_4BIT.INC
                  LCD_OFF   0x000077    program     static E:\00.-MPLAB\00.-PIC16F84A\MENSAJE_03\LCD_4BIT.INC
             LCD_CursorON   0x000079    program     static E:\00.-MPLAB\00.-PIC16F84A\MENSAJE_03\LCD_4BIT.INC
            LCD_CursorOFF   0x00007b    program     static E:\00.-MPLAB\00.-PIC16F84A\MENSAJE_03\LCD_4BIT.INC
                LCD_Borra   0x00007d    program     static E:\00.-MPLAB\00.-PIC16F84A\MENSAJE_03\LCD_4BIT.INC
      LCD_2Lineas4Bits5x7   0x00007f    program     static E:\00.-MPLAB\00.-PIC16F84A\MENSAJE_03\LCD_4BIT.INC
         LCD_EnviaComando   0x000080    program     static E:\00.-MPLAB\00.-PIC16F84A\MENSAJE_03\LCD_4BIT.INC
             LCD_Caracter   0x000082    program     static E:\00.-MPLAB\00.-PIC16F84A\MENSAJE_03\LCD_4BIT.INC
                LCD_Envia   0x000084    program     static E:\00.-MPLAB\00.-PIC16F84A\MENSAJE_03\LCD_4BIT.INC
          LCD_CodigoCGROM   0x00008c    program     static E:\00.-MPLAB\00.-PIC16F84A\MENSAJE_03\LCD_4BIT.INC
        LCD_EnheMinuscula   0x00008d    program     static E:\00.-MPLAB\00.-PIC16F84A\MENSAJE_03\LCD_4BIT.INC
        LCD_EnheMayuscula   0x000093    program     static E:\00.-MPLAB\00.-PIC16F84A\MENSAJE_03\LCD_4BIT.INC
                LCD_Grado   0x00009a    program     static E:\00.-MPLAB\00.-PIC16F84A\MENSAJE_03\LCD_4BIT.INC
             LCD_FinCGROM   0x0000a0    program     static E:\00.-MPLAB\00.-PIC16F84A\MENSAJE_03\LCD_4BIT.INC
        LCD_LineaEnBlanco   0x0000a2    program     static E:\00.-MPLAB\00.-PIC16F84A\MENSAJE_03\LCD_4BIT.INC
      LCD_UnEspacioBlanco   0x0000a4    program     static E:\00.-MPLAB\00.-PIC16F84A\MENSAJE_03\LCD_4BIT.INC
   LCD_DosEspaciosBlancos   0x0000a6    program     static E:\00.-MPLAB\00.-PIC16F84A\MENSAJE_03\LCD_4BIT.INC
  LCD_TresEspaciosBlancos   0x0000a8    program     static E:\00.-MPLAB\00.-PIC16F84A\MENSAJE_03\LCD_4BIT.INC
         LCD_EnviaBlancos   0x0000a9    program     static E:\00.-MPLAB\00.-PIC16F84A\MENSAJE_03\LCD_4BIT.INC
      LCD_EnviaOtroBlanco   0x0000aa    program     static E:\00.-MPLAB\00.-PIC16F84A\MENSAJE_03\LCD_4BIT.INC
                 LCD_Byte   0x0000af    program     static E:\00.-MPLAB\00.-PIC16F84A\MENSAJE_03\LCD_4BIT.INC
         LCD_ByteCompleto   0x0000b6    program     static E:\00.-MPLAB\00.-PIC16F84A\MENSAJE_03\LCD_4BIT.INC
        LCD_VisualizaAlto   0x0000b7    program     static E:\00.-MPLAB\00.-PIC16F84A\MENSAJE_03\LCD_4BIT.INC
        LCD_VisualizaBajo   0x0000b9    program     static E:\00.-MPLAB\00.-PIC16F84A\MENSAJE_03\LCD_4BIT.INC
               LCD_Nibble   0x0000ba    program     static E:\00.-MPLAB\00.-PIC16F84A\MENSAJE_03\LCD_4BIT.INC
       LCD_EnviaByteLetra   0x0000c2    program     static E:\00.-MPLAB\00.-PIC16F84A\MENSAJE_03\LCD_4BIT.INC
   LCD_FinVisualizaDigito   0x0000c4    program     static E:\00.-MPLAB\00.-PIC16F84A\MENSAJE_03\LCD_4BIT.INC
              LCD_Mensaje   0x0000c5    program     static E:\00.-MPLAB\00.-PIC16F84A\MENSAJE_03\LCD_MENS.INC
LCD_VisualizaOtroCaracter   0x0000c9    program     static E:\00.-MPLAB\00.-PIC16F84A\MENSAJE_03\LCD_MENS.INC
     LCD_NoUltimoCaracter   0x0000cf    program     static E:\00.-MPLAB\00.-PIC16F84A\MENSAJE_03\LCD_MENS.INC
           LCD_FinMensaje   0x0000d2    program     static E:\00.-MPLAB\00.-PIC16F84A\MENSAJE_03\LCD_MENS.INC
    LCD_MensajeMovimiento   0x0000d3    program     static E:\00.-MPLAB\00.-PIC16F84A\MENSAJE_03\LCD_MENS.INC
      LCD_PrimeraPosicion   0x0000d7    program     static E:\00.-MPLAB\00.-PIC16F84A\MENSAJE_03\LCD_MENS.INC
    LCD_VisualizaCaracter   0x0000d9    program     static E:\00.-MPLAB\00.-PIC16F84A\MENSAJE_03\LCD_MENS.INC
         LCD_EsFinalLinea   0x0000dd    program     static E:\00.-MPLAB\00.-PIC16F84A\MENSAJE_03\LCD_MENS.INC
       LCD_NoEsFinalLinea   0x0000e2    program     static E:\00.-MPLAB\00.-PIC16F84A\MENSAJE_03\LCD_MENS.INC
    LCD_NoUltimoCaracter2   0x0000e8    program     static E:\00.-MPLAB\00.-PIC16F84A\MENSAJE_03\LCD_MENS.INC
        LCD_FinMovimiento   0x0000ec    program     static E:\00.-MPLAB\00.-PIC16F84A\MENSAJE_03\LCD_MENS.INC
         Retardo_10micros   0x0000ed    program     static E:\00.-MPLAB\00.-PIC16F84A\MENSAJE_03\RETARDOS.INC
          Retardo_5micros   0x0000f2    program     static E:\00.-MPLAB\00.-PIC16F84A\MENSAJE_03\RETARDOS.INC
          Retardo_4micros   0x0000f3    program     static E:\00.-MPLAB\00.-PIC16F84A\MENSAJE_03\RETARDOS.INC
        Retardo_500micros   0x0000f4    program     static E:\00.-MPLAB\00.-PIC16F84A\MENSAJE_03\RETARDOS.INC
        Retardo_200micros   0x0000f7    program     static E:\00.-MPLAB\00.-PIC16F84A\MENSAJE_03\RETARDOS.INC
        Retardo_100micros   0x0000fa    program     static E:\00.-MPLAB\00.-PIC16F84A\MENSAJE_03\RETARDOS.INC
         Retardo_50micros   0x0000fc    program     static E:\00.-MPLAB\00.-PIC16F84A\MENSAJE_03\RETARDOS.INC
         Retardo_20micros   0x0000ff    program     static E:\00.-MPLAB\00.-PIC16F84A\MENSAJE_03\RETARDOS.INC
            RetardoMicros   0x000100    program     static E:\00.-MPLAB\00.-PIC16F84A\MENSAJE_03\RETARDOS.INC
            Rmicros_Bucle   0x000101    program     static E:\00.-MPLAB\00.-PIC16F84A\MENSAJE_03\RETARDOS.INC
            Retardo_200ms   0x000104    program     static E:\00.-MPLAB\00.-PIC16F84A\MENSAJE_03\RETARDOS.INC
            Retardo_100ms   0x000106    program     static E:\00.-MPLAB\00.-PIC16F84A\MENSAJE_03\RETARDOS.INC
             Retardo_50ms   0x000108    program     static E:\00.-MPLAB\00.-PIC16F84A\MENSAJE_03\RETARDOS.INC
             Retardo_20ms   0x00010a    program     static E:\00.-MPLAB\00.-PIC16F84A\MENSAJE_03\RETARDOS.INC
             Retardo_10ms   0x00010c    program     static E:\00.-MPLAB\00.-PIC16F84A\MENSAJE_03\RETARDOS.INC
              Retardo_5ms   0x00010e    program     static E:\00.-MPLAB\00.-PIC16F84A\MENSAJE_03\RETARDOS.INC
              Retardo_2ms   0x000110    program     static E:\00.-MPLAB\00.-PIC16F84A\MENSAJE_03\RETARDOS.INC
              Retardo_1ms   0x000112    program     static E:\00.-MPLAB\00.-PIC16F84A\MENSAJE_03\RETARDOS.INC
              Retardos_ms   0x000113    program     static E:\00.-MPLAB\00.-PIC16F84A\MENSAJE_03\RETARDOS.INC
        R1ms_BucleExterno   0x000114    program     static E:\00.-MPLAB\00.-PIC16F84A\MENSAJE_03\RETARDOS.INC
        R1ms_BucleInterno   0x000116    program     static E:\00.-MPLAB\00.-PIC16F84A\MENSAJE_03\RETARDOS.INC
              Retardo_20s   0x00011c    program     static E:\00.-MPLAB\00.-PIC16F84A\MENSAJE_03\RETARDOS.INC
              Retardo_10s   0x00011e    program     static E:\00.-MPLAB\00.-PIC16F84A\MENSAJE_03\RETARDOS.INC
               Retardo_5s   0x000120    program     static E:\00.-MPLAB\00.-PIC16F84A\MENSAJE_03\RETARDOS.INC
               Retardo_2s   0x000122    program     static E:\00.-MPLAB\00.-PIC16F84A\MENSAJE_03\RETARDOS.INC
               Retardo_1s   0x000124    program     static E:\00.-MPLAB\00.-PIC16F84A\MENSAJE_03\RETARDOS.INC
            Retardo_500ms   0x000126    program     static E:\00.-MPLAB\00.-PIC16F84A\MENSAJE_03\RETARDOS.INC
          Retardo_1Decima   0x000127    program     static E:\00.-MPLAB\00.-PIC16F84A\MENSAJE_03\RETARDOS.INC
   R1Decima_BucleExterno2   0x000128    program     static E:\00.-MPLAB\00.-PIC16F84A\MENSAJE_03\RETARDOS.INC
    R1Decima_BucleExterno   0x00012a    program     static E:\00.-MPLAB\00.-PIC16F84A\MENSAJE_03\RETARDOS.INC
    R1Decima_BucleInterno   0x00012c    program     static E:\00.-MPLAB\00.-PIC16F84A\MENSAJE_03\RETARDOS.INC


